target datalayout = "e-m:e-p270:32:32-p271:32:32-p272:64:64-i64:64-i128:128-f80:128-n8:16:32:64-S128"
target triple = "x86_64-pc-linux-gnu"

%struct._FUserData = type { ptr, ptr, ptr, ptr, ptr, ptr, ptr, ptr, ptr }

; Function Attrs: nounwind uwtable
define internal zeroext i1 @eval_grad_f(i32 noundef %0, ptr noundef %1, i1 noundef zeroext %2, ptr noundef %3, ptr noundef %4) #0 {
  %6 = alloca i32, align 4
  %7 = alloca ptr, align 8
  %8 = alloca i8, align 1
  %9 = alloca ptr, align 8
  %10 = alloca ptr, align 8
  %11 = alloca i32, align 4
  %12 = alloca i32, align 4
  %13 = alloca ptr, align 8
  %14 = alloca ptr, align 8
  %15 = alloca ptr, align 8
  %16 = alloca i32, align 4
  store i32 %0, ptr %6, align 4, !tbaa !11
  store ptr %1, ptr %7, align 8, !tbaa !8
  %17 = zext i1 %2 to i8
  store i8 %17, ptr %8, align 1, !tbaa !24
  store ptr %3, ptr %9, align 8, !tbaa !8
  store ptr %4, ptr %10, align 8, !tbaa !10
  call void @llvm.lifetime.start.p0(i64 4, ptr %11) #6
  %18 = load i32, ptr %6, align 4, !tbaa !11
  store i32 %18, ptr %11, align 4, !tbaa !11
  call void @llvm.lifetime.start.p0(i64 4, ptr %12) #6
  %19 = load i8, ptr %8, align 1, !tbaa !24, !range !26, !noundef !27
  %20 = trunc i8 %19 to i1
  %21 = zext i1 %20 to i32
  store i32 %21, ptr %12, align 4, !tbaa !11
  call void @llvm.lifetime.start.p0(i64 8, ptr %13) #6
  %22 = load ptr, ptr %10, align 8, !tbaa !10
  store ptr %22, ptr %13, align 8, !tbaa !13
  call void @llvm.lifetime.start.p0(i64 8, ptr %14) #6
  %23 = load ptr, ptr %13, align 8, !tbaa !13
  %24 = getelementptr inbounds nuw %struct._FUserData, ptr %23, i32 0, i32 0
  %25 = load ptr, ptr %24, align 8, !tbaa !28
  store ptr %25, ptr %14, align 8, !tbaa !3
  call void @llvm.lifetime.start.p0(i64 8, ptr %15) #6
  %26 = load ptr, ptr %13, align 8, !tbaa !13
  %27 = getelementptr inbounds nuw %struct._FUserData, ptr %26, i32 0, i32 1
  %28 = load ptr, ptr %27, align 8, !tbaa !29
  store ptr %28, ptr %15, align 8, !tbaa !8
  call void @llvm.lifetime.start.p0(i64 4, ptr %16) #6
  store i32 0, ptr %16, align 4, !tbaa !11
  %29 = load ptr, ptr %13, align 8, !tbaa !13
  %30 = getelementptr inbounds nuw %struct._FUserData, ptr %29, i32 0, i32 4
  %31 = load ptr, ptr %30, align 8, !tbaa !20
  %32 = load ptr, ptr %7, align 8, !tbaa !8
  %33 = load ptr, ptr %9, align 8, !tbaa !8
  %34 = load ptr, ptr %14, align 8, !tbaa !3
  %35 = load ptr, ptr %15, align 8, !tbaa !8
  call void %31(ptr noundef %11, ptr noundef %32, ptr noundef %12, ptr noundef %33, ptr noundef %34, ptr noundef %35, ptr noundef %16)
  %36 = load i32, ptr %16, align 4, !tbaa !11
  %37 = icmp eq i32 %36, 0
  call void @llvm.lifetime.end.p0(i64 4, ptr %16) #6
  call void @llvm.lifetime.end.p0(i64 8, ptr %15) #6
  call void @llvm.lifetime.end.p0(i64 8, ptr %14) #6
  call void @llvm.lifetime.end.p0(i64 8, ptr %13) #6
  call void @llvm.lifetime.end.p0(i64 4, ptr %12) #6
  call void @llvm.lifetime.end.p0(i64 4, ptr %11) #6
  ret i1 %37
}